target datalayout = "e-m:e-p270:32:32-p271:32:32-p272:64:64-i64:64-i128:128-f80:128-n8:16:32:64-S128"
target triple = "x86_64-pc-linux-gnu"

%struct.location = type { i32, i32 }
%struct.block = type { ptr, ptr }
%struct.inst = type { ptr, ptr, i32, %struct.anon, ptr, %struct.location, ptr, ptr, i32, i32, i32, i32, %struct.block, %struct.block, ptr, i32 }
%struct.anon = type { i16, ptr, %struct.jv, ptr }
%struct.jv = type { i8, i8, i16, i32, %union.anon }
%union.anon = type { ptr }

; Function Attrs: nounwind uwtable
define dso_local void @block_free(ptr %0, ptr %1) #0 {
  %3 = alloca %struct.block, align 8
  %4 = alloca ptr, align 8
  %5 = alloca ptr, align 8
  %6 = getelementptr inbounds nuw { ptr, ptr }, ptr %3, i32 0, i32 0
  store ptr %0, ptr %6, align 8
  %7 = getelementptr inbounds nuw { ptr, ptr }, ptr %3, i32 0, i32 1
  store ptr %1, ptr %7, align 8
  call void @llvm.lifetime.start.p0(i64 8, ptr %4) #7
  call void @llvm.lifetime.start.p0(i64 8, ptr %5) #7
  %8 = getelementptr inbounds nuw %struct.block, ptr %3, i32 0, i32 0
  %9 = load ptr, ptr %8, align 8, !tbaa !4
  store ptr %9, ptr %5, align 8, !tbaa !13
  br label %10

10:                                               ; preds = %19, %2
  %11 = load ptr, ptr %5, align 8, !tbaa !13
  %12 = icmp ne ptr %11, null
  br i1 %12, label %14, label %13

13:                                               ; preds = %10
  call void @llvm.lifetime.end.p0(i64 8, ptr %5) #7
  br label %21

14:                                               ; preds = %10
  %15 = load ptr, ptr %5, align 8, !tbaa !13
  %16 = getelementptr inbounds nuw %struct.inst, ptr %15, i32 0, i32 0
  %17 = load ptr, ptr %16, align 8, !tbaa !28
  store ptr %17, ptr %4, align 8, !tbaa !13
  %18 = load ptr, ptr %5, align 8, !tbaa !13
  call void @inst_free(ptr noundef %18)
  br label %19

19:                                               ; preds = %14
  %20 = load ptr, ptr %4, align 8, !tbaa !13
  store ptr %20, ptr %5, align 8, !tbaa !13
  br label %10, !llvm.loop !54

21:                                               ; preds = %13
  call void @llvm.lifetime.end.p0(i64 8, ptr %4) #7
  ret void
}