; Function Attrs: nounwind uwtable
define dso_local void @block_free(ptr %0, ptr readnone captures(none) %1) local_unnamed_addr #1 {
  %.not4 = icmp eq ptr %0, null
  br i1 %.not4, label %._crit_edge, label %.lr.ph

._crit_edge:                                      ; preds = %.lr.ph, %2
  ret void

.lr.ph:                                           ; preds = %2, %.lr.ph
  %.05 = phi ptr [ %3, %.lr.ph ], [ %0, %2 ]
  %3 = load ptr, ptr %.05, align 8, !tbaa !22
  tail call fastcc void @inst_free(ptr noundef nonnull %.05)
  %.not = icmp eq ptr %3, null
  br i1 %.not, label %._crit_edge, label %.lr.ph, !llvm.loop !35
}